; Function Attrs: nounwind uwtable
define ptr @CONF_load_fp(ptr noundef %0, ptr noundef %1, ptr noundef %2) local_unnamed_addr #0 {
  %4 = alloca %struct.conf_st, align 8
  %5 = tail call ptr @BIO_new_fp(ptr noundef %1, i32 noundef 0) #15
  %6 = icmp eq ptr %5, null
  br i1 %6, label %7, label %8

7:                                                ; preds = %3
  tail call void @ERR_new() #15
  tail call void @ERR_set_debug(ptr noundef nonnull @.str.1, i32 noundef 75, ptr noundef nonnull @__func__.CONF_load_fp) #15
  tail call void (i32, i32, ptr, ...) @ERR_set_error(i32 noundef 14, i32 noundef 524295, ptr noundef null) #15
  br label %24

8:                                                ; preds = %3
  call void @llvm.lifetime.start.p0(i64 48, ptr nonnull %4) #15
  %9 = load ptr, ptr @default_CONF_method, align 8, !tbaa !3
  %10 = icmp eq ptr %9, null
  br i1 %10, label %11, label %CONF_load_bio.exit

11:                                               ; preds = %8
  %12 = tail call ptr @NCONF_default() #15
  store ptr %12, ptr @default_CONF_method, align 8, !tbaa !3
  br label %CONF_load_bio.exit

CONF_load_bio.exit:                               ; preds = %8, %11
  %13 = phi ptr [ %12, %11 ], [ %9, %8 ]
  %14 = getelementptr inbounds nuw i8, ptr %13, i64 16
  %15 = load ptr, ptr %14, align 8, !tbaa !8
  %16 = call i32 %15(ptr noundef nonnull %4) #15
  %17 = getelementptr inbounds nuw i8, ptr %4, i64 16
  store ptr %0, ptr %17, align 8, !tbaa !11
  %18 = load ptr, ptr %4, align 8, !tbaa !16
  %19 = getelementptr inbounds nuw i8, ptr %18, i64 40
  %20 = load ptr, ptr %19, align 8, !tbaa !17
  %21 = call i32 %20(ptr noundef nonnull %4, ptr noundef nonnull %5, ptr noundef %2) #15
  %.not.i = icmp eq i32 %21, 0
  %22 = load ptr, ptr %17, align 8
  %.0.i = select i1 %.not.i, ptr null, ptr %22
  call void @llvm.lifetime.end.p0(i64 48, ptr nonnull %4) #15
  %23 = call i32 @BIO_free(ptr noundef nonnull %5) #15
  br label %24

24:                                               ; preds = %CONF_load_bio.exit, %7
  %.0 = phi ptr [ null, %7 ], [ %.0.i, %CONF_load_bio.exit ]
  ret ptr %.0
}